target datalayout = "e-m:e-p270:32:32-p271:32:32-p272:64:64-i64:64-i128:128-f80:128-n8:16:32:64-S128"
target triple = "x86_64-pc-linux-gnu"

; Function Attrs: nounwind uwtable
define internal void @filter16_simple_high(ptr noundef %0, ptr noundef %1, ptr noundef %2, ptr noundef %3, i32 noundef %4) #2 {
  %6 = alloca ptr, align 8
  %7 = alloca ptr, align 8
  %8 = alloca ptr, align 8
  %9 = alloca ptr, align 8
  %10 = alloca i32, align 4
  %11 = alloca [3 x ptr], align 16
  %12 = alloca [3 x ptr], align 16
  %13 = alloca i32, align 4
  store ptr %0, ptr %6, align 8, !tbaa !66
  store ptr %1, ptr %7, align 8, !tbaa !99
  store ptr %2, ptr %8, align 8, !tbaa !99
  store ptr %3, ptr %9, align 8, !tbaa !100
  store i32 %4, ptr %10, align 4, !tbaa !24
  call void @llvm.lifetime.start.p0(i64 24, ptr %11) #10
  %14 = load ptr, ptr %7, align 8, !tbaa !99
  %15 = getelementptr inbounds ptr, ptr %14, i64 0
  %16 = load ptr, ptr %15, align 8, !tbaa !88
  store ptr %16, ptr %11, align 8, !tbaa !100
  %17 = getelementptr inbounds ptr, ptr %11, i64 1
  %18 = load ptr, ptr %7, align 8, !tbaa !99
  %19 = getelementptr inbounds ptr, ptr %18, i64 1
  %20 = load ptr, ptr %19, align 8, !tbaa !88
  store ptr %20, ptr %17, align 8, !tbaa !100
  %21 = getelementptr inbounds ptr, ptr %11, i64 2
  %22 = load ptr, ptr %7, align 8, !tbaa !99
  %23 = getelementptr inbounds ptr, ptr %22, i64 2
  %24 = load ptr, ptr %23, align 8, !tbaa !88
  store ptr %24, ptr %21, align 8, !tbaa !100
  call void @llvm.lifetime.start.p0(i64 24, ptr %12) #10
  %25 = load ptr, ptr %8, align 8, !tbaa !99
  %26 = getelementptr inbounds ptr, ptr %25, i64 0
  %27 = load ptr, ptr %26, align 8, !tbaa !88
  store ptr %27, ptr %12, align 8, !tbaa !100
  %28 = getelementptr inbounds ptr, ptr %12, i64 1
  %29 = load ptr, ptr %8, align 8, !tbaa !99
  %30 = getelementptr inbounds ptr, ptr %29, i64 1
  %31 = load ptr, ptr %30, align 8, !tbaa !88
  store ptr %31, ptr %28, align 8, !tbaa !100
  %32 = getelementptr inbounds ptr, ptr %12, i64 2
  %33 = load ptr, ptr %8, align 8, !tbaa !99
  %34 = getelementptr inbounds ptr, ptr %33, i64 2
  %35 = load ptr, ptr %34, align 8, !tbaa !88
  store ptr %35, ptr %32, align 8, !tbaa !100
  call void @llvm.lifetime.start.p0(i64 4, ptr %13) #10
  %36 = load i32, ptr %10, align 4, !tbaa !24
  %37 = sdiv i32 %36, 2
  store i32 %37, ptr %10, align 4, !tbaa !24
  store i32 0, ptr %13, align 4, !tbaa !24
  br label %38

38:                                               ; preds = %122, %5
  %39 = load i32, ptr %13, align 4, !tbaa !24
  %40 = load i32, ptr %10, align 4, !tbaa !24
  %41 = icmp slt i32 %39, %40
  br i1 %41, label %42, label %125

42:                                               ; preds = %38
  %43 = getelementptr inbounds [3 x ptr], ptr %11, i64 0, i64 0
  %44 = load ptr, ptr %43, align 16, !tbaa !100
  %45 = getelementptr inbounds nuw i16, ptr %44, i32 1
  store ptr %45, ptr %43, align 16, !tbaa !100
  %46 = load i16, ptr %44, align 2, !tbaa !102
  %47 = zext i16 %46 to i32
  %48 = load ptr, ptr %9, align 8, !tbaa !100
  %49 = getelementptr inbounds i16, ptr %48, i64 0
  %50 = load i16, ptr %49, align 2, !tbaa !102
  %51 = sext i16 %50 to i32
  %52 = mul nsw i32 %47, %51
  %53 = load ptr, ptr %6, align 8, !tbaa !66
  %54 = load i32, ptr %53, align 4, !tbaa !24
  %55 = add nsw i32 %54, %52
  store i32 %55, ptr %53, align 4, !tbaa !24
  %56 = getelementptr inbounds [3 x ptr], ptr %12, i64 0, i64 0
  %57 = load ptr, ptr %56, align 16, !tbaa !100
  %58 = getelementptr inbounds nuw i16, ptr %57, i32 1
  store ptr %58, ptr %56, align 16, !tbaa !100
  %59 = load i16, ptr %57, align 2, !tbaa !102
  %60 = zext i16 %59 to i32
  %61 = load ptr, ptr %9, align 8, !tbaa !100
  %62 = getelementptr inbounds i16, ptr %61, i64 0
  %63 = load i16, ptr %62, align 2, !tbaa !102
  %64 = sext i16 %63 to i32
  %65 = mul nsw i32 %60, %64
  %66 = load ptr, ptr %6, align 8, !tbaa !66
  %67 = load i32, ptr %66, align 4, !tbaa !24
  %68 = add nsw i32 %67, %65
  store i32 %68, ptr %66, align 4, !tbaa !24
  %69 = getelementptr inbounds [3 x ptr], ptr %11, i64 0, i64 1
  %70 = load ptr, ptr %69, align 8, !tbaa !100
  %71 = getelementptr inbounds nuw i16, ptr %70, i32 1
  store ptr %71, ptr %69, align 8, !tbaa !100
  %72 = load i16, ptr %70, align 2, !tbaa !102
  %73 = zext i16 %72 to i32
  %74 = load ptr, ptr %9, align 8, !tbaa !100
  %75 = getelementptr inbounds i16, ptr %74, i64 1
  %76 = load i16, ptr %75, align 2, !tbaa !102
  %77 = sext i16 %76 to i32
  %78 = mul nsw i32 %73, %77
  %79 = load ptr, ptr %6, align 8, !tbaa !66
  %80 = load i32, ptr %79, align 4, !tbaa !24
  %81 = add nsw i32 %80, %78
  store i32 %81, ptr %79, align 4, !tbaa !24
  %82 = getelementptr inbounds [3 x ptr], ptr %12, i64 0, i64 1
  %83 = load ptr, ptr %82, align 8, !tbaa !100
  %84 = getelementptr inbounds nuw i16, ptr %83, i32 1
  store ptr %84, ptr %82, align 8, !tbaa !100
  %85 = load i16, ptr %83, align 2, !tbaa !102
  %86 = zext i16 %85 to i32
  %87 = load ptr, ptr %9, align 8, !tbaa !100
  %88 = getelementptr inbounds i16, ptr %87, i64 1
  %89 = load i16, ptr %88, align 2, !tbaa !102
  %90 = sext i16 %89 to i32
  %91 = mul nsw i32 %86, %90
  %92 = load ptr, ptr %6, align 8, !tbaa !66
  %93 = load i32, ptr %92, align 4, !tbaa !24
  %94 = add nsw i32 %93, %91
  store i32 %94, ptr %92, align 4, !tbaa !24
  %95 = getelementptr inbounds [3 x ptr], ptr %11, i64 0, i64 2
  %96 = load ptr, ptr %95, align 16, !tbaa !100
  %97 = getelementptr inbounds nuw i16, ptr %96, i32 1
  store ptr %97, ptr %95, align 16, !tbaa !100
  %98 = load i16, ptr %96, align 2, !tbaa !102
  %99 = zext i16 %98 to i32
  %100 = load ptr, ptr %9, align 8, !tbaa !100
  %101 = getelementptr inbounds i16, ptr %100, i64 2
  %102 = load i16, ptr %101, align 2, !tbaa !102
  %103 = sext i16 %102 to i32
  %104 = mul nsw i32 %99, %103
  %105 = load ptr, ptr %6, align 8, !tbaa !66
  %106 = load i32, ptr %105, align 4, !tbaa !24
  %107 = add nsw i32 %106, %104
  store i32 %107, ptr %105, align 4, !tbaa !24
  %108 = getelementptr inbounds [3 x ptr], ptr %12, i64 0, i64 2
  %109 = load ptr, ptr %108, align 16, !tbaa !100
  %110 = getelementptr inbounds nuw i16, ptr %109, i32 1
  store ptr %110, ptr %108, align 16, !tbaa !100
  %111 = load i16, ptr %109, align 2, !tbaa !102
  %112 = zext i16 %111 to i32
  %113 = load ptr, ptr %9, align 8, !tbaa !100
  %114 = getelementptr inbounds i16, ptr %113, i64 2
  %115 = load i16, ptr %114, align 2, !tbaa !102
  %116 = sext i16 %115 to i32
  %117 = mul nsw i32 %112, %116
  %118 = load ptr, ptr %6, align 8, !tbaa !66
  %119 = getelementptr inbounds nuw i32, ptr %118, i32 1
  store ptr %119, ptr %6, align 8, !tbaa !66
  %120 = load i32, ptr %118, align 4, !tbaa !24
  %121 = add nsw i32 %120, %117
  store i32 %121, ptr %118, align 4, !tbaa !24
  br label %122

122:                                              ; preds = %42
  %123 = load i32, ptr %13, align 4, !tbaa !24
  %124 = add nsw i32 %123, 1
  store i32 %124, ptr %13, align 4, !tbaa !24
  br label %38, !llvm.loop !111

125:                                              ; preds = %38
  call void @llvm.lifetime.end.p0(i64 4, ptr %13) #10
  call void @llvm.lifetime.end.p0(i64 24, ptr %12) #10
  call void @llvm.lifetime.end.p0(i64 24, ptr %11) #10
  ret void
}