; Function Attrs: nofree norecurse nosync nounwind memory(read, argmem: readwrite, inaccessiblemem: none) uwtable
define internal void @filter16_simple_high(ptr noundef captures(none) %0, ptr noundef readonly captures(none) %1, ptr noundef readonly captures(none) %2, ptr noundef readonly captures(none) %3, i32 noundef %4) #6 {
  %6 = sdiv i32 %4, 2
  %7 = icmp sgt i32 %4, 1
  br i1 %7, label %.lr.ph, label %._crit_edge

.lr.ph:                                           ; preds = %5
  %8 = getelementptr inbounds nuw i8, ptr %2, i64 16
  %9 = load ptr, ptr %8, align 8, !tbaa !78
  %10 = getelementptr inbounds nuw i8, ptr %2, i64 8
  %11 = load ptr, ptr %10, align 8, !tbaa !78
  %12 = load ptr, ptr %2, align 8, !tbaa !78
  %13 = getelementptr inbounds nuw i8, ptr %1, i64 16
  %14 = load ptr, ptr %13, align 8, !tbaa !78
  %15 = getelementptr inbounds nuw i8, ptr %1, i64 8
  %16 = load ptr, ptr %15, align 8, !tbaa !78
  %17 = load ptr, ptr %1, align 8, !tbaa !78
  %18 = load i16, ptr %3, align 2, !tbaa !87
  %19 = sext i16 %18 to i32
  %20 = getelementptr inbounds nuw i8, ptr %3, i64 2
  %21 = load i16, ptr %20, align 2, !tbaa !87
  %22 = sext i16 %21 to i32
  %23 = getelementptr inbounds nuw i8, ptr %3, i64 4
  %24 = load i16, ptr %23, align 2, !tbaa !87
  %25 = sext i16 %24 to i32
  br label %26

26:                                               ; preds = %.lr.ph, %26
  %.032 = phi i32 [ 0, %.lr.ph ], [ %59, %26 ]
  %.sroa.0.031 = phi ptr [ %12, %.lr.ph ], [ %33, %26 ]
  %.sroa.5.030 = phi ptr [ %11, %.lr.ph ], [ %43, %26 ]
  %.sroa.8.029 = phi ptr [ %9, %.lr.ph ], [ %53, %26 ]
  %.sroa.02.028 = phi ptr [ %17, %.lr.ph ], [ %27, %26 ]
  %.sroa.53.027 = phi ptr [ %16, %.lr.ph ], [ %38, %26 ]
  %.sroa.84.026 = phi ptr [ %14, %.lr.ph ], [ %48, %26 ]
  %.02425 = phi ptr [ %0, %.lr.ph ], [ %57, %26 ]
  %27 = getelementptr inbounds nuw i8, ptr %.sroa.02.028, i64 2
  %28 = load i16, ptr %.sroa.02.028, align 2, !tbaa !87
  %29 = zext i16 %28 to i32
  %30 = mul nsw i32 %19, %29
  %31 = load i32, ptr %.02425, align 4, !tbaa !58
  %32 = add nsw i32 %30, %31
  %33 = getelementptr inbounds nuw i8, ptr %.sroa.0.031, i64 2
  %34 = load i16, ptr %.sroa.0.031, align 2, !tbaa !87
  %35 = zext i16 %34 to i32
  %36 = mul nsw i32 %35, %19
  %37 = add nsw i32 %36, %32
  %38 = getelementptr inbounds nuw i8, ptr %.sroa.53.027, i64 2
  %39 = load i16, ptr %.sroa.53.027, align 2, !tbaa !87
  %40 = zext i16 %39 to i32
  %41 = mul nsw i32 %22, %40
  %42 = add nsw i32 %41, %37
  %43 = getelementptr inbounds nuw i8, ptr %.sroa.5.030, i64 2
  %44 = load i16, ptr %.sroa.5.030, align 2, !tbaa !87
  %45 = zext i16 %44 to i32
  %46 = mul nsw i32 %45, %22
  %47 = add nsw i32 %46, %42
  %48 = getelementptr inbounds nuw i8, ptr %.sroa.84.026, i64 2
  %49 = load i16, ptr %.sroa.84.026, align 2, !tbaa !87
  %50 = zext i16 %49 to i32
  %51 = mul nsw i32 %25, %50
  %52 = add nsw i32 %51, %47
  %53 = getelementptr inbounds nuw i8, ptr %.sroa.8.029, i64 2
  %54 = load i16, ptr %.sroa.8.029, align 2, !tbaa !87
  %55 = zext i16 %54 to i32
  %56 = mul nsw i32 %55, %25
  %57 = getelementptr inbounds nuw i8, ptr %.02425, i64 4
  %58 = add nsw i32 %56, %52
  store i32 %58, ptr %.02425, align 4, !tbaa !58
  %59 = add nuw nsw i32 %.032, 1
  %exitcond.not = icmp eq i32 %59, %6
  br i1 %exitcond.not, label %._crit_edge, label %26, !llvm.loop !96

._crit_edge:                                      ; preds = %26, %5
  ret void
}